target datalayout = "e-m:e-p270:32:32-p271:32:32-p272:64:64-i64:64-i128:128-f80:128-n8:16:32:64-S128"
target triple = "x86_64-pc-linux-gnu"

%struct.Aig_Man_t_ = type { ptr, ptr, ptr, ptr, ptr, ptr, ptr, %struct.Aig_Obj_t_, i32, i32, i32, i32, i32, i32, [7 x i32], i32, ptr, i32, ptr, i32, ptr, i32, i32, i32, ptr, i32, i32, i32, i32, i32, ptr, ptr, i32, ptr, ptr, i32, ptr, ptr, i32, i32, i32, ptr, ptr, ptr, ptr, ptr, ptr, ptr, ptr, ptr, ptr, ptr, ptr, ptr, ptr, i32, ptr, ptr, ptr, ptr, i32, i64, i64, i64, ptr, ptr }
%struct.Aig_Obj_t_ = type { %union.anon, ptr, ptr, i64, i32, i32, %union.anon.0 }
%union.anon = type { ptr }
%union.anon.0 = type { ptr }
%struct.Vec_Ptr_t_ = type { i32, i32, ptr }

; Function Attrs: nounwind uwtable
define internal ptr @Aig_ObjFindRepr(ptr noundef %0, ptr noundef %1) #0 {
  %3 = alloca ptr, align 8
  %4 = alloca ptr, align 8
  store ptr %0, ptr %3, align 8
  store ptr %1, ptr %4, align 8
  %5 = load ptr, ptr %3, align 8
  %6 = getelementptr inbounds %struct.Aig_Man_t_, ptr %5, i32 0, i32 31
  %7 = load ptr, ptr %6, align 8
  %8 = load ptr, ptr %4, align 8
  %9 = getelementptr inbounds %struct.Aig_Obj_t_, ptr %8, i32 0, i32 5
  %10 = load i32, ptr %9, align 4
  %11 = sext i32 %10 to i64
  %12 = getelementptr inbounds ptr, ptr %7, i64 %11
  %13 = load ptr, ptr %12, align 8
  ret ptr %13
}

; Function Attrs: nounwind uwtable
define internal void @Aig_ObjSetRepr_(ptr noundef %0, ptr noundef %1, ptr noundef %2) #0 {
  %4 = alloca ptr, align 8
  %5 = alloca ptr, align 8
  %6 = alloca ptr, align 8
  store ptr %0, ptr %4, align 8
  store ptr %1, ptr %5, align 8
  store ptr %2, ptr %6, align 8
  %7 = load ptr, ptr %5, align 8
  %8 = load ptr, ptr %6, align 8
  %9 = icmp eq ptr %7, %8
  br i1 %9, label %10, label %11

10:                                               ; preds = %3
  br label %39

11:                                               ; preds = %3
  %12 = load ptr, ptr %5, align 8
  %13 = getelementptr inbounds %struct.Aig_Obj_t_, ptr %12, i32 0, i32 5
  %14 = load i32, ptr %13, align 4
  %15 = load ptr, ptr %6, align 8
  %16 = getelementptr inbounds %struct.Aig_Obj_t_, ptr %15, i32 0, i32 5
  %17 = load i32, ptr %16, align 4
  %18 = icmp slt i32 %14, %17
  br i1 %18, label %19, label %29

19:                                               ; preds = %11
  %20 = load ptr, ptr %5, align 8
  %21 = load ptr, ptr %4, align 8
  %22 = getelementptr inbounds %struct.Aig_Man_t_, ptr %21, i32 0, i32 31
  %23 = load ptr, ptr %22, align 8
  %24 = load ptr, ptr %6, align 8
  %25 = getelementptr inbounds %struct.Aig_Obj_t_, ptr %24, i32 0, i32 5
  %26 = load i32, ptr %25, align 4
  %27 = sext i32 %26 to i64
  %28 = getelementptr inbounds ptr, ptr %23, i64 %27
  store ptr %20, ptr %28, align 8
  br label %39

29:                                               ; preds = %11
  %30 = load ptr, ptr %6, align 8
  %31 = load ptr, ptr %4, align 8
  %32 = getelementptr inbounds %struct.Aig_Man_t_, ptr %31, i32 0, i32 31
  %33 = load ptr, ptr %32, align 8
  %34 = load ptr, ptr %5, align 8
  %35 = getelementptr inbounds %struct.Aig_Obj_t_, ptr %34, i32 0, i32 5
  %36 = load i32, ptr %35, align 4
  %37 = sext i32 %36 to i64
  %38 = getelementptr inbounds ptr, ptr %33, i64 %37
  store ptr %30, ptr %38, align 8
  br label %39

39:                                               ; preds = %29, %19, %10
  ret void
}

; Function Attrs: nounwind uwtable
define internal ptr @Aig_ObjFindReprTransitive(ptr noundef %0, ptr noundef %1) #0 {
  %3 = alloca ptr, align 8
  %4 = alloca ptr, align 8
  %5 = alloca ptr, align 8
  %6 = alloca ptr, align 8
  store ptr %0, ptr %3, align 8
  store ptr %1, ptr %4, align 8
  %7 = load ptr, ptr %3, align 8
  %8 = load ptr, ptr %4, align 8
  %9 = call ptr @Aig_ObjFindRepr(ptr noundef %7, ptr noundef %8)
  store ptr %9, ptr %6, align 8
  %10 = icmp ne ptr %9, null
  br i1 %10, label %11, label %20

11:                                               ; preds = %2
  br label %12

12:                                               ; preds = %17, %11
  %13 = load ptr, ptr %3, align 8
  %14 = load ptr, ptr %6, align 8
  %15 = call ptr @Aig_ObjFindRepr(ptr noundef %13, ptr noundef %14)
  store ptr %15, ptr %5, align 8
  %16 = icmp ne ptr %15, null
  br i1 %16, label %17, label %19

17:                                               ; preds = %12
  %18 = load ptr, ptr %5, align 8
  store ptr %18, ptr %6, align 8
  br label %12, !llvm.loop !12

19:                                               ; preds = %12
  br label %20

20:                                               ; preds = %19, %2
  %21 = load ptr, ptr %6, align 8
  ret ptr %21
}

; Function Attrs: nounwind uwtable
define internal i32 @Aig_ObjIsNode(ptr noundef %0) #0 {
  %2 = alloca ptr, align 8
  store ptr %0, ptr %2, align 8
  %3 = load ptr, ptr %2, align 8
  %4 = getelementptr inbounds %struct.Aig_Obj_t_, ptr %3, i32 0, i32 3
  %5 = load i64, ptr %4, align 8
  %6 = and i64 %5, 7
  %7 = trunc i64 %6 to i32
  %8 = icmp eq i32 %7, 5
  br i1 %8, label %16, label %9

9:                                                ; preds = %1
  %10 = load ptr, ptr %2, align 8
  %11 = getelementptr inbounds %struct.Aig_Obj_t_, ptr %10, i32 0, i32 3
  %12 = load i64, ptr %11, align 8
  %13 = and i64 %12, 7
  %14 = trunc i64 %13 to i32
  %15 = icmp eq i32 %14, 6
  br label %16

16:                                               ; preds = %9, %1
  %17 = phi i1 [ true, %1 ], [ %15, %9 ]
  %18 = zext i1 %17 to i32
  ret i32 %18
}

; Function Attrs: nounwind uwtable
define internal ptr @Vec_PtrEntry(ptr noundef %0, i32 noundef %1) #0 {
  %3 = alloca ptr, align 8
  %4 = alloca i32, align 4
  store ptr %0, ptr %3, align 8
  store i32 %1, ptr %4, align 4
  %5 = load ptr, ptr %3, align 8
  %6 = getelementptr inbounds %struct.Vec_Ptr_t_, ptr %5, i32 0, i32 2
  %7 = load ptr, ptr %6, align 8
  %8 = load i32, ptr %4, align 4
  %9 = sext i32 %8 to i64
  %10 = getelementptr inbounds ptr, ptr %7, i64 %9
  %11 = load ptr, ptr %10, align 8
  ret ptr %11
}

; Function Attrs: nounwind uwtable
define internal i32 @Vec_PtrSize(ptr noundef %0) #0 {
  %2 = alloca ptr, align 8
  store ptr %0, ptr %2, align 8
  %3 = load ptr, ptr %2, align 8
  %4 = getelementptr inbounds %struct.Vec_Ptr_t_, ptr %3, i32 0, i32 1
  %5 = load i32, ptr %4, align 4
  ret i32 %5
}

; Function Attrs: nounwind uwtable
define i32 @Aig_ManRemapRepr(ptr noundef %0) #0 {
  %2 = alloca ptr, align 8
  %3 = alloca ptr, align 8
  %4 = alloca ptr, align 8
  %5 = alloca i32, align 4
  %6 = alloca i32, align 4
  store ptr %0, ptr %2, align 8
  store i32 0, ptr %6, align 4
  store i32 0, ptr %5, align 4
  br label %7

7:                                                ; preds = %52, %1
  %8 = load i32, ptr %5, align 4
  %9 = load ptr, ptr %2, align 8
  %10 = getelementptr inbounds %struct.Aig_Man_t_, ptr %9, i32 0, i32 4
  %11 = load ptr, ptr %10, align 8
  %12 = call i32 @Vec_PtrSize(ptr noundef %11)
  %13 = icmp slt i32 %8, %12
  br i1 %13, label %14, label %20

14:                                               ; preds = %7
  %15 = load ptr, ptr %2, align 8
  %16 = getelementptr inbounds %struct.Aig_Man_t_, ptr %15, i32 0, i32 4
  %17 = load ptr, ptr %16, align 8
  %18 = load i32, ptr %5, align 4
  %19 = call ptr @Vec_PtrEntry(ptr noundef %17, i32 noundef %18)
  store ptr %19, ptr %3, align 8
  br label %20

20:                                               ; preds = %14, %7
  %21 = phi i1 [ false, %7 ], [ true, %14 ]
  br i1 %21, label %22, label %55

22:                                               ; preds = %20
  %23 = load ptr, ptr %3, align 8
  %24 = icmp eq ptr %23, null
  br i1 %24, label %29, label %25

25:                                               ; preds = %22
  %26 = load ptr, ptr %3, align 8
  %27 = call i32 @Aig_ObjIsNode(ptr noundef %26)
  %28 = icmp ne i32 %27, 0
  br i1 %28, label %30, label %29

29:                                               ; preds = %25, %22
  br label %51

30:                                               ; preds = %25
  %31 = load ptr, ptr %2, align 8
  %32 = load ptr, ptr %3, align 8
  %33 = call ptr @Aig_ObjFindReprTransitive(ptr noundef %31, ptr noundef %32)
  store ptr %33, ptr %4, align 8
  %34 = load ptr, ptr %4, align 8
  %35 = icmp eq ptr %34, null
  br i1 %35, label %36, label %37

36:                                               ; preds = %30
  br label %52

37:                                               ; preds = %30
  %38 = load ptr, ptr %2, align 8
  %39 = load ptr, ptr %3, align 8
  %40 = load ptr, ptr %4, align 8
  call void @Aig_ObjSetRepr_(ptr noundef %38, ptr noundef %39, ptr noundef %40)
  %41 = load ptr, ptr %3, align 8
  %42 = getelementptr inbounds %struct.Aig_Obj_t_, ptr %41, i32 0, i32 3
  %43 = load i64, ptr %42, align 8
  %44 = lshr i64 %43, 6
  %45 = and i64 %44, 67108863
  %46 = trunc i64 %45 to i32
  %47 = icmp sgt i32 %46, 0
  %48 = zext i1 %47 to i32
  %49 = load i32, ptr %6, align 4
  %50 = add nsw i32 %49, %48
  store i32 %50, ptr %6, align 4
  br label %51

51:                                               ; preds = %37, %29
  br label %52

52:                                               ; preds = %51, %36
  %53 = load i32, ptr %5, align 4
  %54 = add nsw i32 %53, 1
  store i32 %54, ptr %5, align 4
  br label %7, !llvm.loop !11

55:                                               ; preds = %20
  %56 = load i32, ptr %6, align 4
  ret i32 %56
}