; Function Attrs: nofree norecurse nosync nounwind memory(readwrite, inaccessiblemem: none) uwtable
define i32 @Aig_ManRemapRepr(ptr noundef readonly captures(none) %0) local_unnamed_addr #9 {
  %2 = getelementptr inbounds nuw i8, ptr %0, i64 32
  %3 = load ptr, ptr %2, align 8
  %4 = getelementptr i8, ptr %3, i64 4
  %.val23 = load i32, ptr %4, align 4
  %5 = icmp sgt i32 %.val23, 0
  br i1 %5, label %.lr.ph, label %.critedge

.lr.ph:                                           ; preds = %1
  %6 = getelementptr i8, ptr %0, i64 256
  br label %7

7:                                                ; preds = %.lr.ph, %Aig_ObjFindReprTransitive.exit.thread
  %.pre2728 = phi ptr [ %3, %.lr.ph ], [ %.pre2729, %Aig_ObjFindReprTransitive.exit.thread ]
  %8 = phi ptr [ %3, %.lr.ph ], [ %36, %Aig_ObjFindReprTransitive.exit.thread ]
  %indvars.iv = phi i64 [ 0, %.lr.ph ], [ %indvars.iv.next, %Aig_ObjFindReprTransitive.exit.thread ]
  %.025 = phi i32 [ 0, %.lr.ph ], [ %.1, %Aig_ObjFindReprTransitive.exit.thread ]
  %9 = getelementptr i8, ptr %8, i64 8
  %.val18 = load ptr, ptr %9, align 8
  %10 = getelementptr inbounds nuw ptr, ptr %.val18, i64 %indvars.iv
  %11 = load ptr, ptr %10, align 8
  %12 = icmp eq ptr %11, null
  br i1 %12, label %Aig_ObjFindReprTransitive.exit.thread, label %13

13:                                               ; preds = %7
  %14 = getelementptr i8, ptr %11, i64 24
  %.val19 = load i64, ptr %14, align 8
  %15 = trunc i64 %.val19 to i32
  %16 = and i32 %15, 7
  %17 = add nsw i32 %16, -7
  %narrow.i = icmp ult i32 %17, -2
  br i1 %narrow.i, label %Aig_ObjFindReprTransitive.exit.thread, label %18

18:                                               ; preds = %13
  %.val20 = load ptr, ptr %6, align 8
  %19 = getelementptr i8, ptr %11, i64 36
  %.val21 = load i32, ptr %19, align 4
  %20 = sext i32 %.val21 to i64
  %21 = getelementptr inbounds ptr, ptr %.val20, i64 %20
  %22 = load ptr, ptr %21, align 8
  %.not.i = icmp eq ptr %22, null
  br i1 %.not.i, label %Aig_ObjFindReprTransitive.exit.thread, label %.preheader.i

.preheader.i:                                     ; preds = %18, %.preheader.i
  %.1.i = phi ptr [ %26, %.preheader.i ], [ %22, %18 ]
  %23 = getelementptr i8, ptr %.1.i, i64 36
  %.1.val.i = load i32, ptr %23, align 4
  %24 = sext i32 %.1.val.i to i64
  %25 = getelementptr inbounds ptr, ptr %.val20, i64 %24
  %26 = load ptr, ptr %25, align 8
  %.not9.i = icmp eq ptr %26, null
  br i1 %.not9.i, label %Aig_ObjFindReprTransitive.exit, label %.preheader.i, !llvm.loop !11

Aig_ObjFindReprTransitive.exit:                   ; preds = %.preheader.i
  %27 = icmp eq ptr %11, %.1.i
  br i1 %27, label %Aig_ObjSetRepr_.exit, label %.sink.split.i

.sink.split.i:                                    ; preds = %Aig_ObjFindReprTransitive.exit
  %28 = icmp slt i32 %.val21, %.1.val.i
  %..i = tail call i32 @llvm.smax.i32(i32 %.val21, i32 %.1.val.i)
  %.16.i = select i1 %28, ptr %11, ptr %.1.i
  %29 = sext i32 %..i to i64
  %30 = getelementptr inbounds ptr, ptr %.val20, i64 %29
  store ptr %.16.i, ptr %30, align 8
  %.pre = load i64, ptr %14, align 8
  %.pre27.pre = load ptr, ptr %2, align 8
  br label %Aig_ObjSetRepr_.exit

Aig_ObjSetRepr_.exit:                             ; preds = %Aig_ObjFindReprTransitive.exit, %.sink.split.i
  %.pre27 = phi ptr [ %.pre2728, %Aig_ObjFindReprTransitive.exit ], [ %.pre27.pre, %.sink.split.i ]
  %31 = phi i64 [ %.val19, %Aig_ObjFindReprTransitive.exit ], [ %.pre, %.sink.split.i ]
  %32 = and i64 %31, 4294967232
  %33 = icmp ne i64 %32, 0
  %34 = zext i1 %33 to i32
  %35 = add nsw i32 %.025, %34
  br label %Aig_ObjFindReprTransitive.exit.thread

Aig_ObjFindReprTransitive.exit.thread:            ; preds = %18, %Aig_ObjSetRepr_.exit, %13, %7
  %.pre2729 = phi ptr [ %.pre2728, %7 ], [ %.pre27, %Aig_ObjSetRepr_.exit ], [ %.pre2728, %13 ], [ %.pre2728, %18 ]
  %36 = phi ptr [ %8, %7 ], [ %.pre27, %Aig_ObjSetRepr_.exit ], [ %8, %13 ], [ %8, %18 ]
  %.1 = phi i32 [ %.025, %7 ], [ %35, %Aig_ObjSetRepr_.exit ], [ %.025, %13 ], [ %.025, %18 ]
  %indvars.iv.next = add nuw nsw i64 %indvars.iv, 1
  %37 = getelementptr i8, ptr %36, i64 4
  %.val = load i32, ptr %37, align 4
  %38 = sext i32 %.val to i64
  %39 = icmp slt i64 %indvars.iv.next, %38
  br i1 %39, label %7, label %.critedge, !llvm.loop !12

.critedge:                                        ; preds = %Aig_ObjFindReprTransitive.exit.thread, %1
  %.0.lcssa = phi i32 [ 0, %1 ], [ %.1, %Aig_ObjFindReprTransitive.exit.thread ]
  ret i32 %.0.lcssa
}